target datalayout = "e-m:e-p270:32:32-p271:32:32-p272:64:64-i64:64-i128:128-f80:128-n8:16:32:64-S128"
target triple = "x86_64-pc-linux-gnu"

%struct.slurmdb_account_cond_t = type { ptr, ptr, i32, ptr }

; Function Attrs: nounwind uwtable
define dso_local void @slurmdb_destroy_account_cond(ptr noundef %0) #0 {
  %2 = alloca ptr, align 8
  %3 = alloca ptr, align 8
  store ptr %0, ptr %2, align 8
  call void @llvm.lifetime.start.p0(i64 8, ptr %3) #10
  %4 = load ptr, ptr %2, align 8
  store ptr %4, ptr %3, align 8
  %5 = load ptr, ptr %3, align 8
  %6 = icmp ne ptr %5, null
  br i1 %6, label %7, label %39

7:                                                ; preds = %1
  %8 = load ptr, ptr %3, align 8
  %9 = getelementptr inbounds nuw %struct.slurmdb_account_cond_t, ptr %8, i32 0, i32 0
  %10 = load ptr, ptr %9, align 8
  call void @slurmdb_destroy_assoc_cond(ptr noundef %10)
  br label %11

11:                                               ; preds = %7
  %12 = load ptr, ptr %3, align 8
  %13 = getelementptr inbounds nuw %struct.slurmdb_account_cond_t, ptr %12, i32 0, i32 1
  %14 = load ptr, ptr %13, align 8
  %15 = icmp ne ptr %14, null
  br i1 %15, label %16, label %20

16:                                               ; preds = %11
  %17 = load ptr, ptr %3, align 8
  %18 = getelementptr inbounds nuw %struct.slurmdb_account_cond_t, ptr %17, i32 0, i32 1
  %19 = load ptr, ptr %18, align 8
  call void @list_destroy(ptr noundef %19)
  br label %20

20:                                               ; preds = %16, %11
  %21 = load ptr, ptr %3, align 8
  %22 = getelementptr inbounds nuw %struct.slurmdb_account_cond_t, ptr %21, i32 0, i32 1
  store ptr null, ptr %22, align 8
  br label %23

23:                                               ; preds = %20
  br label %24

24:                                               ; preds = %23
  br label %25

25:                                               ; preds = %24
  %26 = load ptr, ptr %3, align 8
  %27 = getelementptr inbounds nuw %struct.slurmdb_account_cond_t, ptr %26, i32 0, i32 3
  %28 = load ptr, ptr %27, align 8
  %29 = icmp ne ptr %28, null
  br i1 %29, label %30, label %34

30:                                               ; preds = %25
  %31 = load ptr, ptr %3, align 8
  %32 = getelementptr inbounds nuw %struct.slurmdb_account_cond_t, ptr %31, i32 0, i32 3
  %33 = load ptr, ptr %32, align 8
  call void @list_destroy(ptr noundef %33)
  br label %34

34:                                               ; preds = %30, %25
  %35 = load ptr, ptr %3, align 8
  %36 = getelementptr inbounds nuw %struct.slurmdb_account_cond_t, ptr %35, i32 0, i32 3
  store ptr null, ptr %36, align 8
  br label %37

37:                                               ; preds = %34
  br label %38

38:                                               ; preds = %37
  call void @slurm_xfree(ptr noundef %3)
  br label %39

39:                                               ; preds = %38, %1
  call void @llvm.lifetime.end.p0(i64 8, ptr %3) #10
  ret void
}