; Function Attrs: nounwind uwtable
define dso_local void @slurmdb_destroy_account_cond(ptr noundef %0) local_unnamed_addr #0 {
  %2 = alloca ptr, align 8
  call void @llvm.lifetime.start.p0(i64 8, ptr nonnull %2) #19
  store ptr %0, ptr %2, align 8
  %.not = icmp eq ptr %0, null
  br i1 %.not, label %13, label %3

3:                                                ; preds = %1
  %4 = load ptr, ptr %0, align 8
  tail call void @slurmdb_destroy_assoc_cond(ptr noundef %4)
  %5 = getelementptr inbounds nuw i8, ptr %0, i64 8
  %6 = load ptr, ptr %5, align 8
  %.not3 = icmp eq ptr %6, null
  br i1 %.not3, label %8, label %7

7:                                                ; preds = %3
  tail call void @list_destroy(ptr noundef nonnull %6) #19
  br label %8

8:                                                ; preds = %7, %3
  store ptr null, ptr %5, align 8
  %9 = getelementptr inbounds nuw i8, ptr %0, i64 24
  %10 = load ptr, ptr %9, align 8
  %.not4 = icmp eq ptr %10, null
  br i1 %.not4, label %12, label %11

11:                                               ; preds = %8
  tail call void @list_destroy(ptr noundef nonnull %10) #19
  br label %12

12:                                               ; preds = %11, %8
  store ptr null, ptr %9, align 8
  call void @slurm_xfree(ptr noundef nonnull %2) #19
  br label %13

13:                                               ; preds = %12, %1
  call void @llvm.lifetime.end.p0(i64 8, ptr nonnull %2) #19
  ret void
}